target datalayout = "e-m:e-p270:32:32-p271:32:32-p272:64:64-i64:64-i128:128-f80:128-n8:16:32:64-S128"
target triple = "x86_64-pc-linux-gnu"

; Function Attrs: mustprogress uwtable
define dso_local noundef zeroext i1 @_ZN4Luau7CodeGen11isSupportedEv() #2 {
  %1 = alloca i1, align 1
  %2 = alloca [4 x i32], align 16
  %3 = alloca i32, align 4
  %4 = call noundef zeroext i1 @_ZN4Luau7CodeGen17isUnwindSupportedEv()
  br i1 %4, label %6, label %5

5:                                                ; preds = %0
  store i1 false, ptr %1, align 1
  br label %23

6:                                                ; preds = %0
  call void @llvm.lifetime.start.p0(i64 16, ptr %2) #14
  call void @llvm.memset.p0.i64(ptr align 16 %2, i8 0, i64 16, i1 false)
  %7 = getelementptr inbounds [4 x i32], ptr %2, i64 0, i64 0
  %8 = getelementptr inbounds [4 x i32], ptr %2, i64 0, i64 1
  %9 = getelementptr inbounds [4 x i32], ptr %2, i64 0, i64 2
  %10 = getelementptr inbounds [4 x i32], ptr %2, i64 0, i64 3
  %11 = call { i32, i32, i32, i32 } asm "  xchgq  %rbx,${1:q}\0A  cpuid\0A  xchgq  %rbx,${1:q}", "={ax},=r,={cx},={dx},0,~{dirflag},~{fpsr},~{flags}"(i32 1) #16, !srcloc !53
  %12 = extractvalue { i32, i32, i32, i32 } %11, 0
  %13 = extractvalue { i32, i32, i32, i32 } %11, 1
  %14 = extractvalue { i32, i32, i32, i32 } %11, 2
  %15 = extractvalue { i32, i32, i32, i32 } %11, 3
  store i32 %12, ptr %7, align 16, !tbaa !22
  store i32 %13, ptr %8, align 4, !tbaa !22
  store i32 %14, ptr %9, align 8, !tbaa !22
  store i32 %15, ptr %10, align 4, !tbaa !22
  %16 = getelementptr inbounds [4 x i32], ptr %2, i64 0, i64 2
  %17 = load i32, ptr %16, align 8, !tbaa !22
  %18 = and i32 %17, 268435456
  %19 = icmp eq i32 %18, 0
  br i1 %19, label %20, label %21

20:                                               ; preds = %6
  store i1 false, ptr %1, align 1
  store i32 1, ptr %3, align 4
  br label %22

21:                                               ; preds = %6
  store i1 true, ptr %1, align 1
  store i32 1, ptr %3, align 4
  br label %22

22:                                               ; preds = %21, %20
  call void @llvm.lifetime.end.p0(i64 16, ptr %2) #14
  br label %23

23:                                               ; preds = %22, %5
  %24 = load i1, ptr %1, align 1
  ret i1 %24
}