; Function Attrs: mustprogress uwtable
define dso_local noundef zeroext i1 @_ZN4Luau7CodeGen11isSupportedEv() local_unnamed_addr #0 {
  %1 = tail call noundef zeroext i1 @_ZN4Luau7CodeGen17isUnwindSupportedEv()
  br i1 %1, label %2, label %7

2:                                                ; preds = %0
  %3 = tail call { i32, i32, i32, i32 } asm "  xchgq  %rbx,${1:q}\0A  cpuid\0A  xchgq  %rbx,${1:q}", "={ax},=r,={cx},={dx},0,~{dirflag},~{fpsr},~{flags}"(i32 1) #7, !srcloc !31
  %4 = extractvalue { i32, i32, i32, i32 } %3, 2
  %5 = and i32 %4, 268435456
  %6 = icmp ne i32 %5, 0
  br label %7

7:                                                ; preds = %0, %2
  %.0 = phi i1 [ %6, %2 ], [ false, %0 ]
  ret i1 %.0
}